; ModuleID = '3/1553.c'
source_filename = "3/1553.c"
target datalayout = "e-m:e-p270:32:32-p271:32:32-p272:64:64-i64:64-f80:128-n8:16:32:64-S128"
target triple = "x86_64-pc-linux-gnu"

@.str = private unnamed_addr constant [5 x i8] c"%d%d\00", align 1
@.str.1 = private unnamed_addr constant [3 x i8] c"%d\00", align 1
@.str.2 = private unnamed_addr constant [3 x i8] c"no\00", align 1
@.str.3 = private unnamed_addr constant [4 x i8] c"yes\00", align 1

; Function Attrs: noinline nounwind uwtable
define dso_local i32 @main() #0 {
  %1 = alloca i32, align 4
  %2 = alloca i32, align 4
  %3 = alloca i32, align 4
  %4 = alloca [1000 x i32], align 16
  %5 = alloca i32, align 4
  %6 = alloca i32, align 4
  %7 = alloca i32, align 4
  %8 = alloca i32, align 4
  %9 = alloca i32, align 4
  store i32 0, i32* %1, align 4
  store i32 0, i32* %8, align 4
  store i32 0, i32* %9, align 4
  %10 = call i32 (i8*, ...) @__isoc99_scanf(i8* getelementptr inbounds ([5 x i8], [5 x i8]* @.str, i64 0, i64 0), i32* %2, i32* %3)
  store i32 0, i32* %5, align 4
  br label %11

11:                                               ; preds = %20, %0
  %12 = load i32, i32* %5, align 4
  %13 = load i32, i32* %2, align 4
  %14 = icmp slt i32 %12, %13
  br i1 %14, label %15, label %23

15:                                               ; preds = %11
  %16 = load i32, i32* %5, align 4
  %17 = sext i32 %16 to i64
  %18 = getelementptr inbounds [1000 x i32], [1000 x i32]* %4, i64 0, i64 %17
  %19 = call i32 (i8*, ...) @__isoc99_scanf(i8* getelementptr inbounds ([3 x i8], [3 x i8]* @.str.1, i64 0, i64 0), i32* %18)
  br label %20

20:                                               ; preds = %15
  %21 = load i32, i32* %5, align 4
  %22 = add nsw i32 %21, 1
  store i32 %22, i32* %5, align 4
  br label %11

23:                                               ; preds = %11
  %24 = load i32, i32* %2, align 4
  %25 = sub nsw i32 %24, 1
  store i32 %25, i32* %6, align 4
  br label %26

26:                                               ; preds = %55, %23
  %27 = load i32, i32* %6, align 4
  %28 = icmp sgt i32 %27, 0
  br i1 %28, label %29, label %58

29:                                               ; preds = %26
  store i32 0, i32* %5, align 4
  br label %30

30:                                               ; preds = %51, %29
  %31 = load i32, i32* %5, align 4
  %32 = load i32, i32* %6, align 4
  %33 = icmp slt i32 %31, %32
  br i1 %33, label %34, label %54

34:                                               ; preds = %30
  %35 = load i32, i32* %5, align 4
  %36 = sext i32 %35 to i64
  %37 = getelementptr inbounds [1000 x i32], [1000 x i32]* %4, i64 0, i64 %36
  %38 = load i32, i32* %37, align 4
  %39 = load i32, i32* %6, align 4
  %40 = sext i32 %39 to i64
  %41 = getelementptr inbounds [1000 x i32], [1000 x i32]* %4, i64 0, i64 %40
  %42 = load i32, i32* %41, align 4
  %43 = add nsw i32 %38, %42
  store i32 %43, i32* %7, align 4
  %44 = load i32, i32* %7, align 4
  %45 = load i32, i32* %3, align 4
  %46 = icmp eq i32 %44, %45
  br i1 %46, label %47, label %50

47:                                               ; preds = %34
  %48 = load i32, i32* %8, align 4
  %49 = add nsw i32 %48, 1
  store i32 %49, i32* %8, align 4
  br label %50

50:                                               ; preds = %47, %34
  br label %51

51:                                               ; preds = %50
  %52 = load i32, i32* %5, align 4
  %53 = add nsw i32 %52, 1
  store i32 %53, i32* %5, align 4
  br label %30

54:                                               ; preds = %30
  br label %55

55:                                               ; preds = %54
  %56 = load i32, i32* %6, align 4
  %57 = add nsw i32 %56, -1
  store i32 %57, i32* %6, align 4
  br label %26

58:                                               ; preds = %26
  %59 = load i32, i32* %8, align 4
  %60 = icmp eq i32 %59, 0
  br i1 %60, label %61, label %63

61:                                               ; preds = %58
  %62 = call i32 (i8*, ...) @printf(i8* getelementptr inbounds ([3 x i8], [3 x i8]* @.str.2, i64 0, i64 0))
  br label %65

63:                                               ; preds = %58
  %64 = call i32 (i8*, ...) @printf(i8* getelementptr inbounds ([4 x i8], [4 x i8]* @.str.3, i64 0, i64 0))
  br label %65

65:                                               ; preds = %63, %61
  ret i32 0
}

declare dso_local i32 @__isoc99_scanf(i8*, ...) #1

declare dso_local i32 @printf(i8*, ...) #1


!llvm.module.flags = !{!0}
!llvm.ident = !{!1}

!0 = !{i32 1, !"wchar_size", i32 4}
!1 = !{!"clang version 10.0.0-4ubuntu1 "}
